; Function Attrs: nofree norecurse nosync nounwind sspstrong memory(argmem: readwrite) uwtable
define hidden void @FLAC__lpc_window_data_partial(ptr noundef readonly captures(none) %0, ptr noundef readonly captures(none) %1, ptr noundef writeonly captures(none) %2, i32 noundef %3, i32 noundef %4, i32 noundef %5) local_unnamed_addr #0 {
  %7 = add i32 %5, %4
  %8 = icmp ult i32 %7, %3
  br i1 %8, label %.preheader, label %38

.preheader:                                       ; preds = %6
  %.not = icmp eq i32 %4, 0
  br i1 %.not, label %._crit_edge, label %.lr.ph.preheader

.lr.ph.preheader:                                 ; preds = %.preheader
  %wide.trip.count = zext i32 %4 to i64
  br label %.lr.ph

.lr.ph:                                           ; preds = %.lr.ph.preheader, %.lr.ph
  %indvars.iv = phi i64 [ 0, %.lr.ph.preheader ], [ %indvars.iv.next, %.lr.ph ]
  %9 = trunc nuw i64 %indvars.iv to i32
  %10 = add i32 %5, %9
  %11 = zext i32 %10 to i64
  %12 = getelementptr inbounds nuw i32, ptr %0, i64 %11
  %13 = load i32, ptr %12, align 4, !tbaa !3
  %14 = sitofp i32 %13 to float
  %15 = getelementptr inbounds nuw float, ptr %1, i64 %indvars.iv
  %16 = load float, ptr %15, align 4, !tbaa !7
  %17 = fmul reassoc nsz arcp float %16, %14
  %18 = getelementptr inbounds nuw float, ptr %2, i64 %indvars.iv
  store float %17, ptr %18, align 4, !tbaa !7
  %indvars.iv.next = add nuw nsw i64 %indvars.iv, 1
  %exitcond.not = icmp eq i64 %indvars.iv.next, %wide.trip.count
  br i1 %exitcond.not, label %._crit_edge, label %.lr.ph, !llvm.loop !14

._crit_edge:                                      ; preds = %.lr.ph, %.preheader
  %19 = sub i32 %3, %4
  %20 = sub i32 %19, %5
  %.037. = tail call i32 @llvm.umin.i32(i32 %4, i32 %20)
  %21 = icmp ult i32 %19, %3
  br i1 %21, label %.lr.ph45.preheader, label %._crit_edge46

.lr.ph45.preheader:                               ; preds = %._crit_edge
  %22 = zext i32 %19 to i64
  %wide.trip.count53 = zext i32 %3 to i64
  br label %.lr.ph45

.lr.ph45:                                         ; preds = %.lr.ph45.preheader, %.lr.ph45
  %indvars.iv50 = phi i64 [ %22, %.lr.ph45.preheader ], [ %indvars.iv.next51, %.lr.ph45 ]
  %.142 = phi i32 [ %.037., %.lr.ph45.preheader ], [ %33, %.lr.ph45 ]
  %23 = add i32 %.142, %5
  %24 = zext i32 %23 to i64
  %25 = getelementptr inbounds nuw i32, ptr %0, i64 %24
  %26 = load i32, ptr %25, align 4, !tbaa !3
  %27 = sitofp i32 %26 to float
  %28 = getelementptr inbounds nuw float, ptr %1, i64 %indvars.iv50
  %29 = load float, ptr %28, align 4, !tbaa !7
  %30 = fmul reassoc nsz arcp float %29, %27
  %31 = zext i32 %.142 to i64
  %32 = getelementptr inbounds nuw float, ptr %2, i64 %31
  store float %30, ptr %32, align 4, !tbaa !7
  %33 = add i32 %.142, 1
  %indvars.iv.next51 = add nuw nsw i64 %indvars.iv50, 1
  %exitcond54.not = icmp eq i64 %indvars.iv.next51, %wide.trip.count53
  br i1 %exitcond54.not, label %._crit_edge46, label %.lr.ph45, !llvm.loop !15

._crit_edge46:                                    ; preds = %.lr.ph45, %._crit_edge
  %.1.lcssa = phi i32 [ %.037., %._crit_edge ], [ %33, %.lr.ph45 ]
  %34 = icmp ult i32 %.1.lcssa, %3
  br i1 %34, label %35, label %38

35:                                               ; preds = %._crit_edge46
  %36 = zext i32 %.1.lcssa to i64
  %37 = getelementptr inbounds nuw float, ptr %2, i64 %36
  store float 0.000000e+00, ptr %37, align 4, !tbaa !7
  br label %38

38:                                               ; preds = %._crit_edge46, %35, %6
  ret void
}